; Function Attrs: mustprogress nounwind uwtable
define internal fastcc void @_ZNSt10unique_ptrIvN12_GLOBAL__N_114HostBufferImpl7DeleterEED2Ev(ptr nocapture noundef nonnull align 8 dereferenceable(8) %0) unnamed_addr #4 align 2 personality ptr @__gxx_personality_v0 {
  %2 = load ptr, ptr %0, align 8
  %.not = icmp eq ptr %2, null
  br i1 %.not, label %_ZNK12_GLOBAL__N_114HostBufferImpl7DeleterclEPv.exit, label %3

3:                                                ; preds = %1
  invoke void @_ZN3ade12aligned_freeEPv(ptr noundef nonnull %2)
          to label %_ZNK12_GLOBAL__N_114HostBufferImpl7DeleterclEPv.exit unwind label %4

_ZNK12_GLOBAL__N_114HostBufferImpl7DeleterclEPv.exit: ; preds = %3, %1
  store ptr null, ptr %0, align 8
  ret void

4:                                                ; preds = %3
  %5 = landingpad { ptr, i32 }
          catch ptr null
  %6 = extractvalue { ptr, i32 } %5, 0
  tail call void @__clang_call_terminate(ptr %6) #23
  unreachable
}